target datalayout = "e-m:e-p270:32:32-p271:32:32-p272:64:64-i64:64-i128:128-f80:128-n8:16:32:64-S128"
target triple = "x86_64-unknown-linux-gnu"

%"class.sat::literal" = type { i32 }
%"class.sat::aig_cuts" = type { %class.random_gen, %"struct.sat::aig_cuts::config", %class.vector, %class.svector, %class.region, %"class.sat::cut_set", %"class.sat::cut_set", %"class.sat::cut_set", %class.vector.1, %class.svector.2, %class.svector.2, i32, i32, %class.svector.4, i32, %"class.std::function", %"class.std::function", %"class.std::function.6", %"class.std::function.6", %class.svector, [6 x ptr], [6 x i64], [6 x %"class.sat::literal"] }
%class.random_gen = type { i32 }
%"struct.sat::aig_cuts::config" = type <{ i32, i32, i32, i8, [3 x i8] }>
%class.vector = type { ptr }
%class.region = type { ptr, ptr, ptr, ptr, ptr }
%"class.sat::cut_set" = type { i32, ptr, i32, i32, ptr }
%class.vector.1 = type { ptr }
%class.svector.2 = type { %class.vector.3 }
%class.vector.3 = type { ptr }
%class.svector.4 = type { %class.vector.5 }
%class.vector.5 = type { ptr }
%"class.std::function" = type { %"class.std::_Function_base", ptr }
%"class.std::_Function_base" = type { %"union.std::_Any_data", ptr }
%"union.std::_Any_data" = type { %"union.std::_Nocopy_types" }
%"union.std::_Nocopy_types" = type { { i64, i64 } }
%"class.std::function.6" = type { %"class.std::_Function_base", ptr }
%class.svector = type { %class.vector.0 }
%class.vector.0 = type { ptr }
%"class.sat::aig_cuts::node" = type { i8, i32, i64, i32, i32 }
%class.svector.8 = type { %class.vector.9 }
%class.vector.9 = type { ptr }

@.str = private unnamed_addr constant [9 x i8] c"augment \00", align 1
@.str.2 = private unnamed_addr constant [9 x i8] c"\0Abefore\0A\00", align 1
@.str.3 = private unnamed_addr constant [7 x i8] c"after\0A\00", align 1

; Function Attrs: mustprogress nounwind uwtable
define linkonce_odr hidden noundef i32 @_ZNK6vectorIN3sat8aig_cuts4nodeELb0EjE4sizeEv(ptr noundef nonnull align 8 dereferenceable(8) %this) #4 comdat align 2 {
entry:
  %retval = alloca i32, align 4
  %this.addr = alloca ptr, align 8
  store ptr %this, ptr %this.addr, align 8
  %this1 = load ptr, ptr %this.addr, align 8
  %m_data = getelementptr inbounds %class.vector.9, ptr %this1, i32 0, i32 0
  %0 = load ptr, ptr %m_data, align 8
  %cmp = icmp eq ptr %0, null
  br i1 %cmp, label %if.then, label %if.end

if.then:                                          ; preds = %entry
  store i32 0, ptr %retval, align 4
  br label %return

if.end:                                           ; preds = %entry
  %m_data2 = getelementptr inbounds %class.vector.9, ptr %this1, i32 0, i32 0
  %1 = load ptr, ptr %m_data2, align 8
  %arrayidx = getelementptr inbounds i32, ptr %1, i64 -1
  %2 = load i32, ptr %arrayidx, align 4
  store i32 %2, ptr %retval, align 4
  br label %return

return:                                           ; preds = %if.end, %if.then
  %3 = load i32, ptr %retval, align 4
  ret i32 %3
}

; Function Attrs: mustprogress nounwind uwtable
define linkonce_odr hidden noundef i32 @_ZNK6vectorIjLb0EjE4sizeEv(ptr noundef nonnull align 8 dereferenceable(8) %this) #4 comdat align 2 {
entry:
  %retval = alloca i32, align 4
  %this.addr = alloca ptr, align 8
  store ptr %this, ptr %this.addr, align 8
  %this1 = load ptr, ptr %this.addr, align 8
  %m_data = getelementptr inbounds %class.vector.3, ptr %this1, i32 0, i32 0
  %0 = load ptr, ptr %m_data, align 8
  %cmp = icmp eq ptr %0, null
  br i1 %cmp, label %if.then, label %if.end

if.then:                                          ; preds = %entry
  store i32 0, ptr %retval, align 4
  br label %return

if.end:                                           ; preds = %entry
  %m_data2 = getelementptr inbounds %class.vector.3, ptr %this1, i32 0, i32 0
  %1 = load ptr, ptr %m_data2, align 8
  %arrayidx = getelementptr inbounds i32, ptr %1, i64 -1
  %2 = load i32, ptr %arrayidx, align 4
  store i32 %2, ptr %retval, align 4
  br label %return

return:                                           ; preds = %if.end, %if.then
  %3 = load i32, ptr %retval, align 4
  ret i32 %3
}

; Function Attrs: mustprogress uwtable
define linkonce_odr hidden noundef ptr @_ZN6vectorIN3sat8aig_cuts4nodeELb0EjE3endEv(ptr noundef nonnull align 8 dereferenceable(8) %this) #5 comdat align 2 {
entry:
  %this.addr = alloca ptr, align 8
  store ptr %this, ptr %this.addr, align 8
  %this1 = load ptr, ptr %this.addr, align 8
  %m_data = getelementptr inbounds %class.vector.9, ptr %this1, i32 0, i32 0
  %0 = load ptr, ptr %m_data, align 8
  %call = call noundef i32 @_ZNK6vectorIN3sat8aig_cuts4nodeELb0EjE4sizeEv(ptr noundef nonnull align 8 dereferenceable(8) %this1)
  %idx.ext = zext i32 %call to i64
  %add.ptr = getelementptr inbounds %"class.sat::aig_cuts::node", ptr %0, i64 %idx.ext
  ret ptr %add.ptr
}

; Function Attrs: mustprogress nounwind uwtable
define linkonce_odr hidden noundef ptr @_ZN6vectorIN3sat8aig_cuts4nodeELb0EjE5beginEv(ptr noundef nonnull align 8 dereferenceable(8) %this) #4 comdat align 2 {
entry:
  %this.addr = alloca ptr, align 8
  store ptr %this, ptr %this.addr, align 8
  %this1 = load ptr, ptr %this.addr, align 8
  %m_data = getelementptr inbounds %class.vector.9, ptr %this1, i32 0, i32 0
  %0 = load ptr, ptr %m_data, align 8
  ret ptr %0
}

; Function Attrs: mustprogress nounwind uwtable
define linkonce_odr hidden noundef nonnull align 8 dereferenceable(32) ptr @_ZN6vectorIN3sat7cut_setELb1EjEixEj(ptr noundef nonnull align 8 dereferenceable(8) %this, i32 noundef %idx) #4 comdat align 2 {
entry:
  %this.addr = alloca ptr, align 8
  %idx.addr = alloca i32, align 4
  store ptr %this, ptr %this.addr, align 8
  store i32 %idx, ptr %idx.addr, align 4
  %this1 = load ptr, ptr %this.addr, align 8
  %m_data = getelementptr inbounds %class.vector.1, ptr %this1, i32 0, i32 0
  %0 = load ptr, ptr %m_data, align 8
  %1 = load i32, ptr %idx.addr, align 4
  %idxprom = zext i32 %1 to i64
  %arrayidx = getelementptr inbounds %"class.sat::cut_set", ptr %0, i64 %idxprom
  ret ptr %arrayidx
}

; Function Attrs: mustprogress nounwind uwtable
define linkonce_odr hidden noundef zeroext i1 @_ZNK6vectorIN3sat8aig_cuts4nodeELb0EjE5emptyEv(ptr noundef nonnull align 8 dereferenceable(8) %this) #4 comdat align 2 {
entry:
  %this.addr = alloca ptr, align 8
  store ptr %this, ptr %this.addr, align 8
  %this1 = load ptr, ptr %this.addr, align 8
  %m_data = getelementptr inbounds %class.vector.9, ptr %this1, i32 0, i32 0
  %0 = load ptr, ptr %m_data, align 8
  %cmp = icmp eq ptr %0, null
  br i1 %cmp, label %lor.end, label %lor.rhs

lor.rhs:                                          ; preds = %entry
  %m_data2 = getelementptr inbounds %class.vector.9, ptr %this1, i32 0, i32 0
  %1 = load ptr, ptr %m_data2, align 8
  %arrayidx = getelementptr inbounds i32, ptr %1, i64 -1
  %2 = load i32, ptr %arrayidx, align 4
  %cmp3 = icmp eq i32 %2, 0
  br label %lor.end

lor.end:                                          ; preds = %lor.rhs, %entry
  %3 = phi i1 [ true, %entry ], [ %cmp3, %lor.rhs ]
  ret i1 %3
}

; Function Attrs: mustprogress nounwind uwtable
define linkonce_odr hidden noundef nonnull align 8 dereferenceable(8) ptr @_ZN6vectorI7svectorIN3sat8aig_cuts4nodeEjELb1EjEixEj(ptr noundef nonnull align 8 dereferenceable(8) %this, i32 noundef %idx) #4 comdat align 2 {
entry:
  %this.addr = alloca ptr, align 8
  %idx.addr = alloca i32, align 4
  store ptr %this, ptr %this.addr, align 8
  store i32 %idx, ptr %idx.addr, align 4
  %this1 = load ptr, ptr %this.addr, align 8
  %m_data = getelementptr inbounds %class.vector, ptr %this1, i32 0, i32 0
  %0 = load ptr, ptr %m_data, align 8
  %1 = load i32, ptr %idx.addr, align 4
  %idxprom = zext i32 %1 to i64
  %arrayidx = getelementptr inbounds %class.svector.8, ptr %0, i64 %idxprom
  ret ptr %arrayidx
}

; Function Attrs: mustprogress nounwind uwtable
define linkonce_odr hidden noundef ptr @_ZNK6vectorIjLb0EjE3endEv(ptr noundef nonnull align 8 dereferenceable(8) %this) #4 comdat align 2 {
entry:
  %this.addr = alloca ptr, align 8
  store ptr %this, ptr %this.addr, align 8
  %this1 = load ptr, ptr %this.addr, align 8
  %m_data = getelementptr inbounds %class.vector.3, ptr %this1, i32 0, i32 0
  %0 = load ptr, ptr %m_data, align 8
  %call = call noundef i32 @_ZNK6vectorIjLb0EjE4sizeEv(ptr noundef nonnull align 8 dereferenceable(8) %this1)
  %idx.ext = zext i32 %call to i64
  %add.ptr = getelementptr inbounds i32, ptr %0, i64 %idx.ext
  ret ptr %add.ptr
}

; Function Attrs: mustprogress nounwind uwtable
define linkonce_odr hidden noundef ptr @_ZNK6vectorIjLb0EjE5beginEv(ptr noundef nonnull align 8 dereferenceable(8) %this) #4 comdat align 2 {
entry:
  %this.addr = alloca ptr, align 8
  store ptr %this, ptr %this.addr, align 8
  %this1 = load ptr, ptr %this.addr, align 8
  %m_data = getelementptr inbounds %class.vector.3, ptr %this1, i32 0, i32 0
  %0 = load ptr, ptr %m_data, align 8
  ret ptr %0
}

; Function Attrs: mustprogress uwtable
define hidden void @_ZN3sat8aig_cuts7augmentERK7svectorIjjE(ptr noundef nonnull align 8 dereferenceable(480) %this, ptr noundef nonnull align 8 dereferenceable(8) %ids) #5 align 2 {
entry:
  %this.addr = alloca ptr, align 8
  %ids.addr = alloca ptr, align 8
  %__range1 = alloca ptr, align 8
  %__begin1 = alloca ptr, align 8
  %__end1 = alloca ptr, align 8
  %id = alloca i32, align 4
  %__range2 = alloca ptr, align 8
  %__begin2 = alloca ptr, align 8
  %__end2 = alloca ptr, align 8
  %n = alloca ptr, align 8
  store ptr %this, ptr %this.addr, align 8
  store ptr %ids, ptr %ids.addr, align 8
  %this1 = load ptr, ptr %this.addr, align 8
  %0 = load ptr, ptr %ids.addr, align 8
  store ptr %0, ptr %__range1, align 8
  %1 = load ptr, ptr %__range1, align 8
  %call = call noundef ptr @_ZNK6vectorIjLb0EjE5beginEv(ptr noundef nonnull align 8 dereferenceable(8) %1)
  store ptr %call, ptr %__begin1, align 8
  %2 = load ptr, ptr %__range1, align 8
  %call2 = call noundef ptr @_ZNK6vectorIjLb0EjE3endEv(ptr noundef nonnull align 8 dereferenceable(8) %2)
  store ptr %call2, ptr %__end1, align 8
  br label %for.cond

for.cond:                                         ; preds = %for.inc50, %entry
  %3 = load ptr, ptr %__begin1, align 8
  %4 = load ptr, ptr %__end1, align 8
  %cmp = icmp ne ptr %3, %4
  br i1 %cmp, label %for.body, label %for.end52

for.body:                                         ; preds = %for.cond
  %5 = load ptr, ptr %__begin1, align 8
  %6 = load i32, ptr %5, align 4
  store i32 %6, ptr %id, align 4
  %m_aig = getelementptr inbounds %"class.sat::aig_cuts", ptr %this1, i32 0, i32 2
  %7 = load i32, ptr %id, align 4
  %call3 = call noundef nonnull align 8 dereferenceable(8) ptr @_ZN6vectorI7svectorIN3sat8aig_cuts4nodeEjELb1EjEixEj(ptr noundef nonnull align 8 dereferenceable(8) %m_aig, i32 noundef %7)
  %call4 = call noundef zeroext i1 @_ZNK6vectorIN3sat8aig_cuts4nodeELb0EjE5emptyEv(ptr noundef nonnull align 8 dereferenceable(8) %call3)
  br i1 %call4, label %if.then, label %if.end

if.then:                                          ; preds = %for.body
  br label %for.inc50

if.end:                                           ; preds = %for.body
  %call5 = call noundef i32 @_Z19get_verbosity_levelv()
  %cmp6 = icmp uge i32 %call5, 20
  br i1 %cmp6, label %if.then7, label %if.end24

if.then7:                                         ; preds = %if.end
  %call8 = call noundef zeroext i1 @_Z11is_threadedv()
  br i1 %call8, label %if.then9, label %if.else

if.then9:                                         ; preds = %if.then7
  call void @_Z12verbose_lockv()
  %m_cuts = getelementptr inbounds %"class.sat::aig_cuts", ptr %this1, i32 0, i32 8
  %8 = load i32, ptr %id, align 4
  %call10 = call noundef nonnull align 8 dereferenceable(32) ptr @_ZN6vectorIN3sat7cut_setELb1EjEixEj(ptr noundef nonnull align 8 dereferenceable(8) %m_cuts, i32 noundef %8)
  %call11 = call noundef nonnull align 8 dereferenceable(8) ptr @_Z14verbose_streamv()
  %call12 = call noundef nonnull align 8 dereferenceable(8) ptr @_ZStlsISt11char_traitsIcEERSt13basic_ostreamIcT_ES5_PKc(ptr noundef nonnull align 8 dereferenceable(8) %call11, ptr noundef @.str)
  %9 = load i32, ptr %id, align 4
  %call13 = call noundef nonnull align 8 dereferenceable(8) ptr @_ZNSolsEj(ptr noundef nonnull align 8 dereferenceable(8) %call12, i32 noundef %9)
  %call14 = call noundef nonnull align 8 dereferenceable(8) ptr @_ZStlsISt11char_traitsIcEERSt13basic_ostreamIcT_ES5_PKc(ptr noundef nonnull align 8 dereferenceable(8) %call13, ptr noundef @.str.2)
  %call15 = call noundef nonnull align 8 dereferenceable(8) ptr @_ZNK3sat7cut_set7displayERSo(ptr noundef nonnull align 8 dereferenceable(32) %call10, ptr noundef nonnull align 8 dereferenceable(8) %call14)
  call void @_Z14verbose_unlockv()
  br label %if.end23

if.else:                                          ; preds = %if.then7
  %m_cuts16 = getelementptr inbounds %"class.sat::aig_cuts", ptr %this1, i32 0, i32 8
  %10 = load i32, ptr %id, align 4
  %call17 = call noundef nonnull align 8 dereferenceable(32) ptr @_ZN6vectorIN3sat7cut_setELb1EjEixEj(ptr noundef nonnull align 8 dereferenceable(8) %m_cuts16, i32 noundef %10)
  %call18 = call noundef nonnull align 8 dereferenceable(8) ptr @_Z14verbose_streamv()
  %call19 = call noundef nonnull align 8 dereferenceable(8) ptr @_ZStlsISt11char_traitsIcEERSt13basic_ostreamIcT_ES5_PKc(ptr noundef nonnull align 8 dereferenceable(8) %call18, ptr noundef @.str)
  %11 = load i32, ptr %id, align 4
  %call20 = call noundef nonnull align 8 dereferenceable(8) ptr @_ZNSolsEj(ptr noundef nonnull align 8 dereferenceable(8) %call19, i32 noundef %11)
  %call21 = call noundef nonnull align 8 dereferenceable(8) ptr @_ZStlsISt11char_traitsIcEERSt13basic_ostreamIcT_ES5_PKc(ptr noundef nonnull align 8 dereferenceable(8) %call20, ptr noundef @.str.2)
  %call22 = call noundef nonnull align 8 dereferenceable(8) ptr @_ZNK3sat7cut_set7displayERSo(ptr noundef nonnull align 8 dereferenceable(32) %call17, ptr noundef nonnull align 8 dereferenceable(8) %call21)
  br label %if.end23

if.end23:                                         ; preds = %if.else, %if.then9
  br label %if.end24

if.end24:                                         ; preds = %if.end23, %if.end
  %m_aig25 = getelementptr inbounds %"class.sat::aig_cuts", ptr %this1, i32 0, i32 2
  %12 = load i32, ptr %id, align 4
  %call26 = call noundef nonnull align 8 dereferenceable(8) ptr @_ZN6vectorI7svectorIN3sat8aig_cuts4nodeEjELb1EjEixEj(ptr noundef nonnull align 8 dereferenceable(8) %m_aig25, i32 noundef %12)
  store ptr %call26, ptr %__range2, align 8
  %13 = load ptr, ptr %__range2, align 8
  %call27 = call noundef ptr @_ZN6vectorIN3sat8aig_cuts4nodeELb0EjE5beginEv(ptr noundef nonnull align 8 dereferenceable(8) %13)
  store ptr %call27, ptr %__begin2, align 8
  %14 = load ptr, ptr %__range2, align 8
  %call28 = call noundef ptr @_ZN6vectorIN3sat8aig_cuts4nodeELb0EjE3endEv(ptr noundef nonnull align 8 dereferenceable(8) %14)
  store ptr %call28, ptr %__end2, align 8
  br label %for.cond29

for.cond29:                                       ; preds = %for.inc, %if.end24
  %15 = load ptr, ptr %__begin2, align 8
  %16 = load ptr, ptr %__end2, align 8
  %cmp30 = icmp ne ptr %15, %16
  br i1 %cmp30, label %for.body31, label %for.end

for.body31:                                       ; preds = %for.cond29
  %17 = load ptr, ptr %__begin2, align 8
  store ptr %17, ptr %n, align 8
  %18 = load i32, ptr %id, align 4
  %19 = load ptr, ptr %n, align 8
  call void @_ZN3sat8aig_cuts7augmentEjRKNS0_4nodeE(ptr noundef nonnull align 8 dereferenceable(480) %this1, i32 noundef %18, ptr noundef nonnull align 8 dereferenceable(24) %19)
  br label %for.inc

for.inc:                                          ; preds = %for.body31
  %20 = load ptr, ptr %__begin2, align 8
  %incdec.ptr = getelementptr inbounds %"class.sat::aig_cuts::node", ptr %20, i32 1
  store ptr %incdec.ptr, ptr %__begin2, align 8
  br label %for.cond29

for.end:                                          ; preds = %for.cond29
  %call32 = call noundef i32 @_Z19get_verbosity_levelv()
  %cmp33 = icmp uge i32 %call32, 20
  br i1 %cmp33, label %if.then34, label %if.end49

if.then34:                                        ; preds = %for.end
  %call35 = call noundef zeroext i1 @_Z11is_threadedv()
  br i1 %call35, label %if.then36, label %if.else42

if.then36:                                        ; preds = %if.then34
  call void @_Z12verbose_lockv()
  %m_cuts37 = getelementptr inbounds %"class.sat::aig_cuts", ptr %this1, i32 0, i32 8
  %21 = load i32, ptr %id, align 4
  %call38 = call noundef nonnull align 8 dereferenceable(32) ptr @_ZN6vectorIN3sat7cut_setELb1EjEixEj(ptr noundef nonnull align 8 dereferenceable(8) %m_cuts37, i32 noundef %21)
  %call39 = call noundef nonnull align 8 dereferenceable(8) ptr @_Z14verbose_streamv()
  %call40 = call noundef nonnull align 8 dereferenceable(8) ptr @_ZStlsISt11char_traitsIcEERSt13basic_ostreamIcT_ES5_PKc(ptr noundef nonnull align 8 dereferenceable(8) %call39, ptr noundef @.str.3)
  %call41 = call noundef nonnull align 8 dereferenceable(8) ptr @_ZNK3sat7cut_set7displayERSo(ptr noundef nonnull align 8 dereferenceable(32) %call38, ptr noundef nonnull align 8 dereferenceable(8) %call40)
  call void @_Z14verbose_unlockv()
  br label %if.end48

if.else42:                                        ; preds = %if.then34
  %m_cuts43 = getelementptr inbounds %"class.sat::aig_cuts", ptr %this1, i32 0, i32 8
  %22 = load i32, ptr %id, align 4
  %call44 = call noundef nonnull align 8 dereferenceable(32) ptr @_ZN6vectorIN3sat7cut_setELb1EjEixEj(ptr noundef nonnull align 8 dereferenceable(8) %m_cuts43, i32 noundef %22)
  %call45 = call noundef nonnull align 8 dereferenceable(8) ptr @_Z14verbose_streamv()
  %call46 = call noundef nonnull align 8 dereferenceable(8) ptr @_ZStlsISt11char_traitsIcEERSt13basic_ostreamIcT_ES5_PKc(ptr noundef nonnull align 8 dereferenceable(8) %call45, ptr noundef @.str.3)
  %call47 = call noundef nonnull align 8 dereferenceable(8) ptr @_ZNK3sat7cut_set7displayERSo(ptr noundef nonnull align 8 dereferenceable(32) %call44, ptr noundef nonnull align 8 dereferenceable(8) %call46)
  br label %if.end48

if.end48:                                         ; preds = %if.else42, %if.then36
  br label %if.end49

if.end49:                                         ; preds = %if.end48, %for.end
  br label %for.inc50

for.inc50:                                        ; preds = %if.end49, %if.then
  %23 = load ptr, ptr %__begin1, align 8
  %incdec.ptr51 = getelementptr inbounds i32, ptr %23, i32 1
  store ptr %incdec.ptr51, ptr %__begin1, align 8
  br label %for.cond

for.end52:                                        ; preds = %for.cond
  ret void
}