; Function Attrs: mustprogress uwtable
define hidden void @_ZN3sat8aig_cuts7augmentERK7svectorIjjE(ptr noundef nonnull align 8 dereferenceable(480) %this, ptr nocapture noundef nonnull readonly align 8 dereferenceable(8) %ids) local_unnamed_addr #3 align 2 {
entry:
  %0 = load ptr, ptr %ids, align 8
  %cmp.i.i = icmp eq ptr %0, null
  br i1 %cmp.i.i, label %for.end52, label %_ZNK6vectorIjLb0EjE3endEv.exit

_ZNK6vectorIjLb0EjE3endEv.exit:                   ; preds = %entry
  %arrayidx.i.i = getelementptr inbounds i8, ptr %0, i64 -4
  %1 = load i32, ptr %arrayidx.i.i, align 4
  %2 = zext i32 %1 to i64
  %add.ptr.i = getelementptr inbounds i32, ptr %0, i64 %2
  %cmp.not33 = icmp eq i32 %1, 0
  br i1 %cmp.not33, label %for.end52, label %for.body.lr.ph

for.body.lr.ph:                                   ; preds = %_ZNK6vectorIjLb0EjE3endEv.exit
  %m_aig = getelementptr inbounds i8, ptr %this, i64 24
  %m_cuts16 = getelementptr inbounds i8, ptr %this, i64 176
  br label %for.body

for.body:                                         ; preds = %for.body.lr.ph, %for.inc50
  %__begin1.034 = phi ptr [ %0, %for.body.lr.ph ], [ %incdec.ptr51, %for.inc50 ]
  %3 = load i32, ptr %__begin1.034, align 4
  %4 = load ptr, ptr %m_aig, align 8
  %idxprom.i = zext i32 %3 to i64
  %arrayidx.i = getelementptr inbounds %class.svector.8, ptr %4, i64 %idxprom.i
  %5 = load ptr, ptr %arrayidx.i, align 8
  %cmp.i = icmp eq ptr %5, null
  br i1 %cmp.i, label %for.inc50, label %_ZNK6vectorIN3sat8aig_cuts4nodeELb0EjE5emptyEv.exit

_ZNK6vectorIN3sat8aig_cuts4nodeELb0EjE5emptyEv.exit: ; preds = %for.body
  %arrayidx.i15 = getelementptr inbounds i8, ptr %5, i64 -4
  %6 = load i32, ptr %arrayidx.i15, align 4
  %cmp3.i = icmp eq i32 %6, 0
  br i1 %cmp3.i, label %for.inc50, label %if.end

if.end:                                           ; preds = %_ZNK6vectorIN3sat8aig_cuts4nodeELb0EjE5emptyEv.exit
  %call5 = tail call noundef i32 @_Z19get_verbosity_levelv()
  %cmp6 = icmp ugt i32 %call5, 19
  br i1 %cmp6, label %if.then7, label %if.end24

if.then7:                                         ; preds = %if.end
  %call8 = tail call noundef zeroext i1 @_Z11is_threadedv()
  br i1 %call8, label %if.then9, label %if.else

if.then9:                                         ; preds = %if.then7
  tail call void @_Z12verbose_lockv()
  %7 = load ptr, ptr %m_cuts16, align 8
  %arrayidx.i17 = getelementptr inbounds %"class.sat::cut_set", ptr %7, i64 %idxprom.i
  %call11 = tail call noundef nonnull align 8 dereferenceable(8) ptr @_Z14verbose_streamv()
  %call12 = tail call noundef nonnull align 8 dereferenceable(8) ptr @_ZStlsISt11char_traitsIcEERSt13basic_ostreamIcT_ES5_PKc(ptr noundef nonnull align 8 dereferenceable(8) %call11, ptr noundef nonnull @.str)
  %call13 = tail call noundef nonnull align 8 dereferenceable(8) ptr @_ZNSolsEj(ptr noundef nonnull align 8 dereferenceable(8) %call12, i32 noundef %3)
  %call14 = tail call noundef nonnull align 8 dereferenceable(8) ptr @_ZStlsISt11char_traitsIcEERSt13basic_ostreamIcT_ES5_PKc(ptr noundef nonnull align 8 dereferenceable(8) %call13, ptr noundef nonnull @.str.2)
  %call15 = tail call noundef nonnull align 8 dereferenceable(8) ptr @_ZNK3sat7cut_set7displayERSo(ptr noundef nonnull align 8 dereferenceable(32) %arrayidx.i17, ptr noundef nonnull align 8 dereferenceable(8) %call14)
  tail call void @_Z14verbose_unlockv()
  br label %if.end24

if.else:                                          ; preds = %if.then7
  %8 = load ptr, ptr %m_cuts16, align 8
  %arrayidx.i19 = getelementptr inbounds %"class.sat::cut_set", ptr %8, i64 %idxprom.i
  %call18 = tail call noundef nonnull align 8 dereferenceable(8) ptr @_Z14verbose_streamv()
  %call19 = tail call noundef nonnull align 8 dereferenceable(8) ptr @_ZStlsISt11char_traitsIcEERSt13basic_ostreamIcT_ES5_PKc(ptr noundef nonnull align 8 dereferenceable(8) %call18, ptr noundef nonnull @.str)
  %call20 = tail call noundef nonnull align 8 dereferenceable(8) ptr @_ZNSolsEj(ptr noundef nonnull align 8 dereferenceable(8) %call19, i32 noundef %3)
  %call21 = tail call noundef nonnull align 8 dereferenceable(8) ptr @_ZStlsISt11char_traitsIcEERSt13basic_ostreamIcT_ES5_PKc(ptr noundef nonnull align 8 dereferenceable(8) %call20, ptr noundef nonnull @.str.2)
  %call22 = tail call noundef nonnull align 8 dereferenceable(8) ptr @_ZNK3sat7cut_set7displayERSo(ptr noundef nonnull align 8 dereferenceable(32) %arrayidx.i19, ptr noundef nonnull align 8 dereferenceable(8) %call21)
  br label %if.end24

if.end24:                                         ; preds = %if.then9, %if.else, %if.end
  %9 = load ptr, ptr %m_aig, align 8
  %arrayidx.i21 = getelementptr inbounds %class.svector.8, ptr %9, i64 %idxprom.i
  %10 = load ptr, ptr %arrayidx.i21, align 8
  %cmp.i.i22 = icmp eq ptr %10, null
  br i1 %cmp.i.i22, label %for.end, label %_ZN6vectorIN3sat8aig_cuts4nodeELb0EjE3endEv.exit

_ZN6vectorIN3sat8aig_cuts4nodeELb0EjE3endEv.exit: ; preds = %if.end24
  %arrayidx.i.i24 = getelementptr inbounds i8, ptr %10, i64 -4
  %11 = load i32, ptr %arrayidx.i.i24, align 4
  %12 = zext i32 %11 to i64
  %add.ptr.i26 = getelementptr inbounds %"class.sat::aig_cuts::node", ptr %10, i64 %12
  %cmp30.not31 = icmp eq i32 %11, 0
  br i1 %cmp30.not31, label %for.end, label %for.body31

for.body31:                                       ; preds = %_ZN6vectorIN3sat8aig_cuts4nodeELb0EjE3endEv.exit, %for.body31
  %__begin2.032 = phi ptr [ %incdec.ptr, %for.body31 ], [ %10, %_ZN6vectorIN3sat8aig_cuts4nodeELb0EjE3endEv.exit ]
  tail call void @_ZN3sat8aig_cuts7augmentEjRKNS0_4nodeE(ptr noundef nonnull align 8 dereferenceable(480) %this, i32 noundef %3, ptr noundef nonnull align 8 dereferenceable(24) %__begin2.032)
  %incdec.ptr = getelementptr inbounds i8, ptr %__begin2.032, i64 24
  %cmp30.not = icmp eq ptr %incdec.ptr, %add.ptr.i26
  br i1 %cmp30.not, label %for.end, label %for.body31

for.end:                                          ; preds = %for.body31, %if.end24, %_ZN6vectorIN3sat8aig_cuts4nodeELb0EjE3endEv.exit
  %call32 = tail call noundef i32 @_Z19get_verbosity_levelv()
  %cmp33 = icmp ugt i32 %call32, 19
  br i1 %cmp33, label %if.then34, label %for.inc50

if.then34:                                        ; preds = %for.end
  %call35 = tail call noundef zeroext i1 @_Z11is_threadedv()
  br i1 %call35, label %if.then36, label %if.else42

if.then36:                                        ; preds = %if.then34
  tail call void @_Z12verbose_lockv()
  %13 = load ptr, ptr %m_cuts16, align 8
  %arrayidx.i28 = getelementptr inbounds %"class.sat::cut_set", ptr %13, i64 %idxprom.i
  %call39 = tail call noundef nonnull align 8 dereferenceable(8) ptr @_Z14verbose_streamv()
  %call40 = tail call noundef nonnull align 8 dereferenceable(8) ptr @_ZStlsISt11char_traitsIcEERSt13basic_ostreamIcT_ES5_PKc(ptr noundef nonnull align 8 dereferenceable(8) %call39, ptr noundef nonnull @.str.3)
  %call41 = tail call noundef nonnull align 8 dereferenceable(8) ptr @_ZNK3sat7cut_set7displayERSo(ptr noundef nonnull align 8 dereferenceable(32) %arrayidx.i28, ptr noundef nonnull align 8 dereferenceable(8) %call40)
  tail call void @_Z14verbose_unlockv()
  br label %for.inc50

if.else42:                                        ; preds = %if.then34
  %14 = load ptr, ptr %m_cuts16, align 8
  %arrayidx.i30 = getelementptr inbounds %"class.sat::cut_set", ptr %14, i64 %idxprom.i
  %call45 = tail call noundef nonnull align 8 dereferenceable(8) ptr @_Z14verbose_streamv()
  %call46 = tail call noundef nonnull align 8 dereferenceable(8) ptr @_ZStlsISt11char_traitsIcEERSt13basic_ostreamIcT_ES5_PKc(ptr noundef nonnull align 8 dereferenceable(8) %call45, ptr noundef nonnull @.str.3)
  %call47 = tail call noundef nonnull align 8 dereferenceable(8) ptr @_ZNK3sat7cut_set7displayERSo(ptr noundef nonnull align 8 dereferenceable(32) %arrayidx.i30, ptr noundef nonnull align 8 dereferenceable(8) %call46)
  br label %for.inc50

for.inc50:                                        ; preds = %for.body, %for.end, %if.else42, %if.then36, %_ZNK6vectorIN3sat8aig_cuts4nodeELb0EjE5emptyEv.exit
  %incdec.ptr51 = getelementptr inbounds i8, ptr %__begin1.034, i64 4
  %cmp.not = icmp eq ptr %incdec.ptr51, %add.ptr.i
  br i1 %cmp.not, label %for.end52, label %for.body

for.end52:                                        ; preds = %for.inc50, %entry, %_ZNK6vectorIjLb0EjE3endEv.exit
  ret void
}